target datalayout = "e-m:e-p270:32:32-p271:32:32-p272:64:64-i64:64-i128:128-f80:128-n8:16:32:64-S128"
target triple = "x86_64-pc-linux-gnu"

%struct.ident_t = type { i32, i32, i32, i32, ptr }
%struct.Point3D = type { [3 x float] }
%struct.OrientedPoint3D = type { %struct.Point3D, %struct.Point3D }
%struct.ProjectiveData = type { %struct.OrientedPoint3D, float }
%"struct.Octree<float>::PointSample" = type <{ ptr, %struct.ProjectiveData, [4 x i8] }>
%"struct.std::_Vector_base.297" = type { %"struct.std::_Vector_base<Octree<float>::PointSample, std::allocator<Octree<float>::PointSample>>::_Vector_impl" }
%"struct.std::_Vector_base<Octree<float>::PointSample, std::allocator<Octree<float>::PointSample>>::_Vector_impl" = type { %"struct.std::_Vector_base<Octree<float>::PointSample, std::allocator<Octree<float>::PointSample>>::_Vector_impl_data" }
%"struct.std::_Vector_base<Octree<float>::PointSample, std::allocator<Octree<float>::PointSample>>::_Vector_impl_data" = type { ptr, ptr, ptr }

@1 = private unnamed_addr constant %struct.ident_t { i32 0, i32 514, i32 0, i32 22, ptr @0 }, align 8
@.gomp_critical_user_.reduction.var = common global [8 x i32] zeroinitializer, align 8
@3 = private unnamed_addr constant %struct.ident_t { i32 0, i32 18, i32 0, i32 22, ptr @0 }, align 8

; Function Attrs: mustprogress nounwind uwtable
define linkonce_odr void @_ZN7Point3DIfEC2Ev(ptr noundef nonnull align 4 dereferenceable(12) %0) unnamed_addr #4 comdat align 2 {
  %2 = alloca ptr, align 8
  store ptr %0, ptr %2, align 8
  %3 = load ptr, ptr %2, align 8
  %4 = getelementptr inbounds %struct.Point3D, ptr %3, i32 0, i32 0
  %5 = getelementptr inbounds [3 x float], ptr %4, i64 0, i64 2
  store float 0.000000e+00, ptr %5, align 4
  %6 = getelementptr inbounds %struct.Point3D, ptr %3, i32 0, i32 0
  %7 = getelementptr inbounds [3 x float], ptr %6, i64 0, i64 1
  store float 0.000000e+00, ptr %7, align 4
  %8 = getelementptr inbounds %struct.Point3D, ptr %3, i32 0, i32 0
  %9 = getelementptr inbounds [3 x float], ptr %8, i64 0, i64 0
  store float 0.000000e+00, ptr %9, align 4
  ret void
}

; Function Attrs: mustprogress uwtable
define linkonce_odr { <2 x float>, float } @_ZNK7Point3DIfEmlIfEES0_T_(ptr noundef nonnull align 4 dereferenceable(12) %0, float noundef %1) #5 comdat align 2 {
  %3 = alloca %struct.Point3D, align 4
  %4 = alloca ptr, align 8
  %5 = alloca float, align 4
  %6 = alloca { <2 x float>, float }, align 8
  store ptr %0, ptr %4, align 8
  store float %1, ptr %5, align 4
  %7 = load ptr, ptr %4, align 8
  call void @_ZN7Point3DIfEC2Ev(ptr noundef nonnull align 4 dereferenceable(12) %3)
  %8 = getelementptr inbounds %struct.Point3D, ptr %7, i32 0, i32 0
  %9 = getelementptr inbounds [3 x float], ptr %8, i64 0, i64 0
  %10 = load float, ptr %9, align 4
  %11 = load float, ptr %5, align 4
  %12 = fmul float %10, %11
  %13 = getelementptr inbounds %struct.Point3D, ptr %3, i32 0, i32 0
  %14 = getelementptr inbounds [3 x float], ptr %13, i64 0, i64 0
  store float %12, ptr %14, align 4
  %15 = getelementptr inbounds %struct.Point3D, ptr %7, i32 0, i32 0
  %16 = getelementptr inbounds [3 x float], ptr %15, i64 0, i64 1
  %17 = load float, ptr %16, align 4
  %18 = load float, ptr %5, align 4
  %19 = fmul float %17, %18
  %20 = getelementptr inbounds %struct.Point3D, ptr %3, i32 0, i32 0
  %21 = getelementptr inbounds [3 x float], ptr %20, i64 0, i64 1
  store float %19, ptr %21, align 4
  %22 = getelementptr inbounds %struct.Point3D, ptr %7, i32 0, i32 0
  %23 = getelementptr inbounds [3 x float], ptr %22, i64 0, i64 2
  %24 = load float, ptr %23, align 4
  %25 = load float, ptr %5, align 4
  %26 = fmul float %24, %25
  %27 = getelementptr inbounds %struct.Point3D, ptr %3, i32 0, i32 0
  %28 = getelementptr inbounds [3 x float], ptr %27, i64 0, i64 2
  store float %26, ptr %28, align 4
  %29 = getelementptr inbounds %struct.Point3D, ptr %3, i32 0, i32 0
  call void @llvm.memcpy.p0.p0.i64(ptr align 8 %6, ptr align 4 %29, i64 12, i1 false)
  %30 = load { <2 x float>, float }, ptr %6, align 8
  ret { <2 x float>, float } %30
}

; Function Attrs: mustprogress uwtable
define linkonce_odr { <2 x float>, float } @_ZNK7Point3DIfEdvIfEES0_T_(ptr noundef nonnull align 4 dereferenceable(12) %0, float noundef %1) #20 comdat align 2 {
  %3 = alloca %struct.Point3D, align 4
  %4 = alloca ptr, align 8
  %5 = alloca float, align 4
  %6 = alloca { <2 x float>, float }, align 8
  %7 = alloca { <2 x float>, float }, align 8
  store ptr %0, ptr %4, align 8
  store float %1, ptr %5, align 4
  %8 = load ptr, ptr %4, align 8
  %9 = load float, ptr %5, align 4
  %10 = fdiv float 1.000000e+00, %9
  %11 = call { <2 x float>, float } @_ZNK7Point3DIfEmlIfEES0_T_(ptr noundef nonnull align 4 dereferenceable(12) %8, float noundef %10)
  %12 = getelementptr inbounds %struct.Point3D, ptr %3, i32 0, i32 0
  store { <2 x float>, float } %11, ptr %6, align 8
  call void @llvm.memcpy.p0.p0.i64(ptr align 4 %12, ptr align 8 %6, i64 12, i1 false)
  %13 = getelementptr inbounds %struct.Point3D, ptr %3, i32 0, i32 0
  call void @llvm.memcpy.p0.p0.i64(ptr align 8 %7, ptr align 4 %13, i64 12, i1 false)
  %14 = load { <2 x float>, float }, ptr %7, align 8
  ret { <2 x float>, float } %14
}

; Function Attrs: mustprogress nounwind uwtable
define linkonce_odr noundef nonnull align 8 dereferenceable(36) ptr @_ZNSt6vectorIN6OctreeIfE11PointSampleESaIS2_EEixEm(ptr noundef nonnull align 8 dereferenceable(24) %0, i64 noundef %1) #4 comdat align 2 {
  %3 = alloca ptr, align 8
  %4 = alloca i64, align 8
  store ptr %0, ptr %3, align 8
  store i64 %1, ptr %4, align 8
  %5 = load ptr, ptr %3, align 8
  %6 = getelementptr inbounds %"struct.std::_Vector_base.297", ptr %5, i32 0, i32 0
  %7 = getelementptr inbounds %"struct.std::_Vector_base<Octree<float>::PointSample, std::allocator<Octree<float>::PointSample>>::_Vector_impl_data", ptr %6, i32 0, i32 0
  %8 = load ptr, ptr %7, align 8
  %9 = load i64, ptr %4, align 8
  %10 = getelementptr inbounds %"struct.Octree<float>::PointSample", ptr %8, i64 %9
  ret ptr %10
}

; Function Attrs: mustprogress nounwind uwtable
define linkonce_odr noundef i64 @_ZNKSt6vectorIN6OctreeIfE11PointSampleESaIS2_EE4sizeEv(ptr noundef nonnull align 8 dereferenceable(24) %0) #4 comdat align 2 {
  %2 = alloca ptr, align 8
  store ptr %0, ptr %2, align 8
  %3 = load ptr, ptr %2, align 8
  %4 = getelementptr inbounds %"struct.std::_Vector_base.297", ptr %3, i32 0, i32 0
  %5 = getelementptr inbounds %"struct.std::_Vector_base<Octree<float>::PointSample, std::allocator<Octree<float>::PointSample>>::_Vector_impl_data", ptr %4, i32 0, i32 1
  %6 = load ptr, ptr %5, align 8
  %7 = getelementptr inbounds %"struct.std::_Vector_base.297", ptr %3, i32 0, i32 0
  %8 = getelementptr inbounds %"struct.std::_Vector_base<Octree<float>::PointSample, std::allocator<Octree<float>::PointSample>>::_Vector_impl_data", ptr %7, i32 0, i32 0
  %9 = load ptr, ptr %8, align 8
  %10 = ptrtoint ptr %6 to i64
  %11 = ptrtoint ptr %9 to i64
  %12 = sub i64 %10, %11
  %13 = sdiv exact i64 %12, 40
  ret i64 %13
}

; Function Attrs: norecurse nounwind uwtable
define internal void @_Z8_ExecuteIfLi2EL12BoundaryType2E22PlyColorAndValueVertexIfEEiP19OrientedPointStreamIT_EN3vcg4Box3IfEER6CMeshOR12PoissonParamIS4_EPFbiPKcE.omp_outlined.60(ptr noalias noundef %0, ptr noalias noundef %1, ptr noundef nonnull align 8 dereferenceable(8) %2, ptr noundef nonnull align 8 dereferenceable(8) %3, ptr noundef nonnull align 8 dereferenceable(8) %4, ptr noundef nonnull align 8 dereferenceable(4760) %5) #22 personality ptr @__gxx_personality_v0 {
  %7 = alloca ptr, align 8
  %8 = alloca ptr, align 8
  %9 = alloca ptr, align 8
  %10 = alloca ptr, align 8
  %11 = alloca ptr, align 8
  %12 = alloca ptr, align 8
  %13 = alloca i32, align 4
  %14 = alloca i32, align 4
  %15 = alloca i32, align 4
  %16 = alloca i32, align 4
  %17 = alloca i32, align 4
  %18 = alloca i32, align 4
  %19 = alloca i32, align 4
  %20 = alloca i32, align 4
  %21 = alloca double, align 8
  %22 = alloca double, align 8
  %23 = alloca i32, align 4
  %24 = alloca ptr, align 8
  %25 = alloca float, align 4
  %26 = alloca %struct.Point3D, align 4
  %27 = alloca { <2 x float>, float }, align 8
  %28 = alloca { <2 x float>, float }, align 4
  %29 = alloca [2 x ptr], align 8
  store ptr %0, ptr %7, align 8
  store ptr %1, ptr %8, align 8
  store ptr %2, ptr %9, align 8
  store ptr %3, ptr %10, align 8
  store ptr %4, ptr %11, align 8
  store ptr %5, ptr %12, align 8
  %30 = load ptr, ptr %9, align 8
  %31 = load ptr, ptr %10, align 8
  %32 = load ptr, ptr %11, align 8
  %33 = load ptr, ptr %12, align 8
  %34 = load ptr, ptr %30, align 8
  %35 = call noundef i64 @_ZNKSt6vectorIN6OctreeIfE11PointSampleESaIS2_EE4sizeEv(ptr noundef nonnull align 8 dereferenceable(24) %34) #3
  %36 = trunc i64 %35 to i32
  store i32 %36, ptr %14, align 4
  %37 = load i32, ptr %14, align 4
  %38 = sub nsw i32 %37, 0
  %39 = sdiv i32 %38, 1
  %40 = sub nsw i32 %39, 1
  store i32 %40, ptr %15, align 4
  store i32 0, ptr %16, align 4
  %41 = load i32, ptr %14, align 4
  %42 = icmp slt i32 0, %41
  br i1 %42, label %43, label %135

43:                                               ; preds = %6
  store i32 0, ptr %17, align 4
  %44 = load i32, ptr %15, align 4
  store i32 %44, ptr %18, align 4
  store i32 1, ptr %19, align 4
  store i32 0, ptr %20, align 4
  store double 0.000000e+00, ptr %21, align 8
  store double 0.000000e+00, ptr %22, align 8
  %45 = load ptr, ptr %7, align 8
  %46 = load i32, ptr %45, align 4
  call void @__kmpc_for_static_init_4(ptr @1, i32 %46, i32 34, ptr %20, ptr %17, ptr %18, ptr %19, i32 1, i32 1)
  %47 = load i32, ptr %18, align 4
  %48 = load i32, ptr %15, align 4
  %49 = icmp sgt i32 %47, %48
  br i1 %49, label %50, label %52

50:                                               ; preds = %43
  %51 = load i32, ptr %15, align 4
  br label %54

52:                                               ; preds = %43
  %53 = load i32, ptr %18, align 4
  br label %54

54:                                               ; preds = %52, %50
  %55 = phi i32 [ %51, %50 ], [ %53, %52 ]
  store i32 %55, ptr %18, align 4
  %56 = load i32, ptr %17, align 4
  store i32 %56, ptr %13, align 4
  br label %57

57:                                               ; preds = %110, %54
  %58 = load i32, ptr %13, align 4
  %59 = load i32, ptr %18, align 4
  %60 = icmp sle i32 %58, %59
  br i1 %60, label %61, label %113

61:                                               ; preds = %57
  %62 = load i32, ptr %13, align 4
  %63 = mul nsw i32 %62, 1
  %64 = add nsw i32 0, %63
  store i32 %64, ptr %23, align 4
  %65 = load ptr, ptr %30, align 8
  %66 = load i32, ptr %23, align 4
  %67 = sext i32 %66 to i64
  %68 = call noundef nonnull align 8 dereferenceable(36) ptr @_ZNSt6vectorIN6OctreeIfE11PointSampleESaIS2_EEixEm(ptr noundef nonnull align 8 dereferenceable(24) %65, i64 noundef %67) #3
  %69 = getelementptr inbounds %"struct.Octree<float>::PointSample", ptr %68, i32 0, i32 1
  store ptr %69, ptr %24, align 8
  %70 = load ptr, ptr %24, align 8
  %71 = getelementptr inbounds %struct.ProjectiveData, ptr %70, i32 0, i32 1
  %72 = load float, ptr %71, align 4
  store float %72, ptr %25, align 4
  %73 = load float, ptr %25, align 4
  %74 = fcmp ogt float %73, 0.000000e+00
  br i1 %74, label %75, label %108

75:                                               ; preds = %61
  %76 = load float, ptr %25, align 4
  %77 = fpext float %76 to double
  %78 = load double, ptr %22, align 8
  %79 = fadd double %78, %77
  store double %79, ptr %22, align 8
  %80 = load ptr, ptr %24, align 8
  %81 = getelementptr inbounds %struct.ProjectiveData, ptr %80, i32 0, i32 0
  %82 = getelementptr inbounds %struct.OrientedPoint3D, ptr %81, i32 0, i32 0
  %83 = load ptr, ptr %24, align 8
  %84 = getelementptr inbounds %struct.ProjectiveData, ptr %83, i32 0, i32 1
  %85 = load float, ptr %84, align 4
  %86 = invoke { <2 x float>, float } @_ZNK7Point3DIfEdvIfEES0_T_(ptr noundef nonnull align 4 dereferenceable(12) %82, float noundef %85)
          to label %87 unwind label %136

87:                                               ; preds = %75
  %88 = getelementptr inbounds %struct.Point3D, ptr %26, i32 0, i32 0
  store { <2 x float>, float } %86, ptr %27, align 8
  call void @llvm.memcpy.p0.p0.i64(ptr align 4 %88, ptr align 8 %27, i64 12, i1 false)
  %89 = invoke i32 @omp_get_thread_num()
          to label %90 unwind label %136

90:                                               ; preds = %87
  %91 = load ptr, ptr %30, align 8
  %92 = load i32, ptr %23, align 4
  %93 = sext i32 %92 to i64
  %94 = call noundef nonnull align 8 dereferenceable(36) ptr @_ZNSt6vectorIN6OctreeIfE11PointSampleESaIS2_EEixEm(ptr noundef nonnull align 8 dereferenceable(24) %91, i64 noundef %93) #3
  %95 = getelementptr inbounds %"struct.Octree<float>::PointSample", ptr %94, i32 0, i32 0
  %96 = load ptr, ptr %95, align 8
  call void @llvm.memcpy.p0.p0.i64(ptr align 4 %28, ptr align 4 %26, i64 12, i1 false)
  %97 = getelementptr inbounds { <2 x float>, float }, ptr %28, i32 0, i32 0
  %98 = load <2 x float>, ptr %97, align 4
  %99 = getelementptr inbounds { <2 x float>, float }, ptr %28, i32 0, i32 1
  %100 = load float, ptr %99, align 4
  %101 = invoke noundef float @_ZN6OctreeIfE22MultiThreadedEvaluatorILi2EL12BoundaryType2EE5valueE7Point3DIfEiPK7OctNodeI12TreeNodeDataE(ptr noundef nonnull align 8 dereferenceable(4760) %33, <2 x float> %98, float %100, i32 noundef %89, ptr noundef %96)
          to label %102 unwind label %136

102:                                              ; preds = %90
  %103 = load float, ptr %25, align 4
  %104 = fmul float %101, %103
  %105 = fpext float %104 to double
  %106 = load double, ptr %21, align 8
  %107 = fadd double %106, %105
  store double %107, ptr %21, align 8
  br label %108

108:                                              ; preds = %102, %61
  br label %109

109:                                              ; preds = %108
  br label %110

110:                                              ; preds = %109
  %111 = load i32, ptr %13, align 4
  %112 = add nsw i32 %111, 1
  store i32 %112, ptr %13, align 4
  br label %57

113:                                              ; preds = %57
  br label %114

114:                                              ; preds = %113
  %115 = load ptr, ptr %7, align 8
  %116 = load i32, ptr %115, align 4
  call void @__kmpc_for_static_fini(ptr @1, i32 %116)
  %117 = getelementptr inbounds [2 x ptr], ptr %29, i64 0, i64 0
  store ptr %21, ptr %117, align 8
  %118 = getelementptr inbounds [2 x ptr], ptr %29, i64 0, i64 1
  store ptr %22, ptr %118, align 8
  %119 = load ptr, ptr %7, align 8
  %120 = load i32, ptr %119, align 4
  %121 = call i32 @__kmpc_reduce_nowait(ptr @3, i32 %120, i32 2, i64 16, ptr %29, ptr @_Z8_ExecuteIfLi2EL12BoundaryType2E22PlyColorAndValueVertexIfEEiP19OrientedPointStreamIT_EN3vcg4Box3IfEER6CMeshOR12PoissonParamIS4_EPFbiPKcE.omp_outlined.60.omp.reduction.reduction_func, ptr @.gomp_critical_user_.reduction.var)
  switch i32 %121, label %134 [
    i32 1, label %122
    i32 2, label %129
  ]

122:                                              ; preds = %114
  %123 = load double, ptr %32, align 8
  %124 = load double, ptr %21, align 8
  %125 = fadd double %123, %124
  store double %125, ptr %32, align 8
  %126 = load double, ptr %31, align 8
  %127 = load double, ptr %22, align 8
  %128 = fadd double %126, %127
  store double %128, ptr %31, align 8
  call void @__kmpc_end_reduce_nowait(ptr @3, i32 %120, ptr @.gomp_critical_user_.reduction.var)
  br label %134

129:                                              ; preds = %114
  %130 = load double, ptr %21, align 8
  %131 = atomicrmw fadd ptr %32, double %130 monotonic, align 8
  %132 = load double, ptr %22, align 8
  %133 = atomicrmw fadd ptr %31, double %132 monotonic, align 8
  br label %134

134:                                              ; preds = %129, %122, %114
  br label %135

135:                                              ; preds = %134, %6
  ret void

136:                                              ; preds = %90, %87, %75
  %137 = landingpad { ptr, i32 }
          catch ptr null
  %138 = extractvalue { ptr, i32 } %137, 0
  call void @__clang_call_terminate(ptr %138) #27
  unreachable
}