; Function Attrs: norecurse nounwind uwtable
define internal void @_Z8_ExecuteIfLi2EL12BoundaryType2E22PlyColorAndValueVertexIfEEiP19OrientedPointStreamIT_EN3vcg4Box3IfEER6CMeshOR12PoissonParamIS4_EPFbiPKcE.omp_outlined.60(ptr noalias nocapture noundef readonly %0, ptr noalias nocapture readnone %1, ptr nocapture noundef nonnull readonly align 8 dereferenceable(8) %2, ptr nocapture noundef nonnull align 8 dereferenceable(8) %3, ptr nocapture noundef nonnull align 8 dereferenceable(8) %4, ptr noundef nonnull align 8 dereferenceable(4760) %5) #32 personality ptr @__gxx_personality_v0 {
  %7 = alloca i32, align 4
  %8 = alloca i32, align 4
  %9 = alloca i32, align 4
  %10 = alloca i32, align 4
  %11 = alloca double, align 8
  %12 = alloca double, align 8
  %13 = alloca [2 x ptr], align 8
  %14 = load ptr, ptr %2, align 8
  %15 = getelementptr inbounds i8, ptr %14, i64 8
  %16 = load ptr, ptr %15, align 8
  %17 = load ptr, ptr %14, align 8
  %18 = ptrtoint ptr %16 to i64
  %19 = ptrtoint ptr %17 to i64
  %20 = sub i64 %18, %19
  %21 = sdiv exact i64 %20, 40
  %22 = trunc i64 %21 to i32
  %23 = icmp sgt i32 %22, 0
  br i1 %23, label %24, label %82

24:                                               ; preds = %6
  %25 = add nsw i32 %22, -1
  store i32 0, ptr %7, align 4
  store i32 %25, ptr %8, align 4
  store i32 1, ptr %9, align 4
  store i32 0, ptr %10, align 4
  store double 0.000000e+00, ptr %11, align 8
  store double 0.000000e+00, ptr %12, align 8
  %26 = load i32, ptr %0, align 4
  call void @__kmpc_for_static_init_4(ptr nonnull @1, i32 %26, i32 34, ptr nonnull %10, ptr nonnull %7, ptr nonnull %8, ptr nonnull %9, i32 1, i32 1)
  %27 = load i32, ptr %8, align 4
  %28 = call i32 @llvm.smin.i32(i32 %27, i32 %25)
  store i32 %28, ptr %8, align 4
  %29 = load i32, ptr %7, align 4
  %.not27 = icmp sgt i32 %29, %28
  br i1 %.not27, label %._crit_edge, label %.lr.ph.preheader

.lr.ph.preheader:                                 ; preds = %24
  %30 = sext i32 %29 to i64
  br label %.lr.ph

.lr.ph:                                           ; preds = %.lr.ph.preheader, %63
  %31 = phi i32 [ %28, %.lr.ph.preheader ], [ %64, %63 ]
  %32 = phi double [ 0.000000e+00, %.lr.ph.preheader ], [ %65, %63 ]
  %33 = phi double [ 0.000000e+00, %.lr.ph.preheader ], [ %66, %63 ]
  %indvars.iv = phi i64 [ %30, %.lr.ph.preheader ], [ %indvars.iv.next, %63 ]
  %34 = load ptr, ptr %2, align 8
  %35 = load ptr, ptr %34, align 8
  %36 = getelementptr inbounds %"struct.Octree<float>::PointSample", ptr %35, i64 %indvars.iv
  %37 = getelementptr inbounds i8, ptr %36, i64 32
  %38 = load float, ptr %37, align 4
  %39 = fcmp ogt float %38, 0.000000e+00
  br i1 %39, label %40, label %63

40:                                               ; preds = %.lr.ph
  %41 = getelementptr inbounds i8, ptr %36, i64 8
  %42 = fpext float %38 to double
  %43 = fadd double %33, %42
  store double %43, ptr %12, align 8
  %44 = fdiv float 1.000000e+00, %38
  %45 = load float, ptr %41, align 4
  %46 = fmul float %44, %45
  %.sroa.0.0.vec.insert.i.i = insertelement <2 x float> poison, float %46, i64 0
  %47 = getelementptr inbounds i8, ptr %36, i64 12
  %48 = load float, ptr %47, align 4
  %49 = fmul float %44, %48
  %.sroa.0.4.vec.insert.i.i = insertelement <2 x float> %.sroa.0.0.vec.insert.i.i, float %49, i64 1
  %50 = getelementptr inbounds i8, ptr %36, i64 16
  %51 = load float, ptr %50, align 4
  %52 = fmul float %44, %51
  %53 = call i32 @omp_get_thread_num()
  %54 = load ptr, ptr %2, align 8
  %55 = load ptr, ptr %54, align 8
  %56 = getelementptr inbounds %"struct.Octree<float>::PointSample", ptr %55, i64 %indvars.iv
  %57 = load ptr, ptr %56, align 8
  %58 = invoke noundef float @_ZN6OctreeIfE22MultiThreadedEvaluatorILi2EL12BoundaryType2EE5valueE7Point3DIfEiPK7OctNodeI12TreeNodeDataE(ptr noundef nonnull align 8 dereferenceable(4760) %5, <2 x float> %.sroa.0.4.vec.insert.i.i, float %52, i32 noundef %53, ptr noundef %57)
          to label %59 unwind label %83

59:                                               ; preds = %40
  %60 = fmul float %38, %58
  %61 = fpext float %60 to double
  %62 = fadd double %32, %61
  store double %62, ptr %11, align 8
  %.pre = load i32, ptr %8, align 4
  br label %63

63:                                               ; preds = %59, %.lr.ph
  %64 = phi i32 [ %.pre, %59 ], [ %31, %.lr.ph ]
  %65 = phi double [ %62, %59 ], [ %32, %.lr.ph ]
  %66 = phi double [ %43, %59 ], [ %33, %.lr.ph ]
  %indvars.iv.next = add nsw i64 %indvars.iv, 1
  %67 = sext i32 %64 to i64
  %.not.not = icmp slt i64 %indvars.iv, %67
  br i1 %.not.not, label %.lr.ph, label %._crit_edge

._crit_edge:                                      ; preds = %63, %24
  call void @__kmpc_for_static_fini(ptr nonnull @1, i32 %26)
  store ptr %11, ptr %13, align 8
  %68 = getelementptr inbounds i8, ptr %13, i64 8
  store ptr %12, ptr %68, align 8
  %69 = call i32 @__kmpc_reduce_nowait(ptr nonnull @3, i32 %26, i32 2, i64 16, ptr nonnull %13, ptr nonnull @_Z8_ExecuteIfLi2EL12BoundaryType2E22PlyColorAndValueVertexIfEEiP19OrientedPointStreamIT_EN3vcg4Box3IfEER6CMeshOR12PoissonParamIS4_EPFbiPKcE.omp_outlined.60.omp.reduction.reduction_func, ptr nonnull @.gomp_critical_user_.reduction.var)
  switch i32 %69, label %82 [
    i32 1, label %70
    i32 2, label %77
  ]

70:                                               ; preds = %._crit_edge
  %71 = load double, ptr %4, align 8
  %72 = load double, ptr %11, align 8
  %73 = fadd double %71, %72
  store double %73, ptr %4, align 8
  %74 = load double, ptr %3, align 8
  %75 = load double, ptr %12, align 8
  %76 = fadd double %74, %75
  store double %76, ptr %3, align 8
  call void @__kmpc_end_reduce_nowait(ptr nonnull @3, i32 %26, ptr nonnull @.gomp_critical_user_.reduction.var)
  br label %82

77:                                               ; preds = %._crit_edge
  %78 = load double, ptr %11, align 8
  %79 = atomicrmw fadd ptr %4, double %78 monotonic, align 8
  %80 = load double, ptr %12, align 8
  %81 = atomicrmw fadd ptr %3, double %80 monotonic, align 8
  br label %82

82:                                               ; preds = %._crit_edge, %70, %77, %6
  ret void

83:                                               ; preds = %40
  %84 = landingpad { ptr, i32 }
          catch ptr null
  %85 = extractvalue { ptr, i32 } %84, 0
  call void @__clang_call_terminate(ptr %85) #43
  unreachable
}